target datalayout = "e-m:e-p270:32:32-p271:32:32-p272:64:64-i64:64-i128:128-f80:128-n8:16:32:64-S128"
target triple = "x86_64-pc-linux-gnu"

@.str.19 = private unnamed_addr constant [34 x i8] c"Failed to parse IPv6 address \22%s\22\00", align 1
@.str.20 = private unnamed_addr constant [29 x i8] c"Failed to parse address \22%s\22\00", align 1

; Function Attrs: inlinehint nounwind willreturn memory(read) uwtable
define available_externally i32 @atoi(ptr noundef nonnull %0) #11 {
  %2 = alloca ptr, align 8
  store ptr %0, ptr %2, align 8, !tbaa !9
  %3 = load ptr, ptr %2, align 8, !tbaa !9
  %4 = call i64 @strtol(ptr noundef %3, ptr noundef null, i32 noundef 10) #12
  %5 = trunc i64 %4 to i32
  ret i32 %5
}

; Function Attrs: inlinehint nounwind uwtable
define internal ptr @parse_ip_address_ex(ptr noundef %0, i64 noundef %1, ptr noundef %2, i32 noundef %3, ptr noundef %4) #8 {
  %6 = alloca ptr, align 8
  %7 = alloca ptr, align 8
  %8 = alloca i64, align 8
  %9 = alloca ptr, align 8
  %10 = alloca i32, align 4
  %11 = alloca ptr, align 8
  %12 = alloca ptr, align 8
  %13 = alloca ptr, align 8
  %14 = alloca ptr, align 8
  %15 = alloca i32, align 4
  store ptr %0, ptr %7, align 8, !tbaa !9
  store i64 %1, ptr %8, align 8, !tbaa !11
  store ptr %2, ptr %9, align 8, !tbaa !94
  store i32 %3, ptr %10, align 4, !tbaa !33
  store ptr %4, ptr %11, align 8, !tbaa !90
  call void @llvm.lifetime.start.p0(i64 8, ptr %12) #12
  call void @llvm.lifetime.start.p0(i64 8, ptr %13) #12
  store ptr null, ptr %13, align 8, !tbaa !9
  call void @llvm.lifetime.start.p0(i64 8, ptr %14) #12
  %16 = load ptr, ptr %7, align 8, !tbaa !9
  %17 = load i8, ptr %16, align 1, !tbaa !89
  %18 = sext i8 %17 to i32
  %19 = icmp eq i32 %18, 91
  br i1 %19, label %20, label %59

20:                                               ; preds = %5
  %21 = load i64, ptr %8, align 8, !tbaa !11
  %22 = icmp ugt i64 %21, 1
  br i1 %22, label %23, label %59

23:                                               ; preds = %20
  %24 = load ptr, ptr %7, align 8, !tbaa !9
  %25 = getelementptr inbounds i8, ptr %24, i64 1
  %26 = load i64, ptr %8, align 8, !tbaa !11
  %27 = sub i64 %26, 2
  %28 = call ptr @memchr(ptr noundef %25, i32 noundef 93, i64 noundef %27) #14
  store ptr %28, ptr %14, align 8, !tbaa !9
  %29 = load ptr, ptr %14, align 8, !tbaa !9
  %30 = icmp ne ptr %29, null
  br i1 %30, label %31, label %37

31:                                               ; preds = %23
  %32 = load ptr, ptr %14, align 8, !tbaa !9
  %33 = getelementptr inbounds i8, ptr %32, i64 1
  %34 = load i8, ptr %33, align 1, !tbaa !89
  %35 = sext i8 %34 to i32
  %36 = icmp ne i32 %35, 58
  br i1 %36, label %37, label %45

37:                                               ; preds = %31, %23
  %38 = load i32, ptr %10, align 4, !tbaa !33
  %39 = icmp ne i32 %38, 0
  br i1 %39, label %40, label %44

40:                                               ; preds = %37
  %41 = load ptr, ptr %7, align 8, !tbaa !9
  %42 = call ptr (i64, ptr, ...) @zend_strpprintf(i64 noundef 0, ptr noundef @.str.19, ptr noundef %41)
  %43 = load ptr, ptr %11, align 8, !tbaa !90
  store ptr %42, ptr %43, align 8, !tbaa !96
  br label %44

44:                                               ; preds = %40, %37
  store ptr null, ptr %6, align 8
  store i32 1, ptr %15, align 4
  br label %93

45:                                               ; preds = %31
  %46 = load ptr, ptr %14, align 8, !tbaa !9
  %47 = getelementptr inbounds i8, ptr %46, i64 2
  %48 = call i32 @atoi(ptr noundef %47) #14
  %49 = load ptr, ptr %9, align 8, !tbaa !94
  store i32 %48, ptr %49, align 4, !tbaa !33
  %50 = load ptr, ptr %7, align 8, !tbaa !9
  %51 = getelementptr inbounds i8, ptr %50, i64 1
  %52 = load ptr, ptr %14, align 8, !tbaa !9
  %53 = load ptr, ptr %7, align 8, !tbaa !9
  %54 = ptrtoint ptr %52 to i64
  %55 = ptrtoint ptr %53 to i64
  %56 = sub i64 %54, %55
  %57 = sub nsw i64 %56, 1
  %58 = call noalias ptr @_estrndup(ptr noundef %51, i64 noundef %57)
  store ptr %58, ptr %6, align 8
  store i32 1, ptr %15, align 4
  br label %93

59:                                               ; preds = %20, %5
  %60 = load i64, ptr %8, align 8, !tbaa !11
  %61 = icmp ne i64 %60, 0
  br i1 %61, label %62, label %67

62:                                               ; preds = %59
  %63 = load ptr, ptr %7, align 8, !tbaa !9
  %64 = load i64, ptr %8, align 8, !tbaa !11
  %65 = sub i64 %64, 1
  %66 = call ptr @memchr(ptr noundef %63, i32 noundef 58, i64 noundef %65) #14
  store ptr %66, ptr %12, align 8, !tbaa !9
  br label %68

67:                                               ; preds = %59
  store ptr null, ptr %12, align 8, !tbaa !9
  br label %68

68:                                               ; preds = %67, %62
  %69 = load ptr, ptr %12, align 8, !tbaa !9
  %70 = icmp ne ptr %69, null
  br i1 %70, label %71, label %83

71:                                               ; preds = %68
  %72 = load ptr, ptr %12, align 8, !tbaa !9
  %73 = getelementptr inbounds i8, ptr %72, i64 1
  %74 = call i32 @atoi(ptr noundef %73) #14
  %75 = load ptr, ptr %9, align 8, !tbaa !94
  store i32 %74, ptr %75, align 4, !tbaa !33
  %76 = load ptr, ptr %7, align 8, !tbaa !9
  %77 = load ptr, ptr %12, align 8, !tbaa !9
  %78 = load ptr, ptr %7, align 8, !tbaa !9
  %79 = ptrtoint ptr %77 to i64
  %80 = ptrtoint ptr %78 to i64
  %81 = sub i64 %79, %80
  %82 = call noalias ptr @_estrndup(ptr noundef %76, i64 noundef %81)
  store ptr %82, ptr %13, align 8, !tbaa !9
  br label %91

83:                                               ; preds = %68
  %84 = load i32, ptr %10, align 4, !tbaa !33
  %85 = icmp ne i32 %84, 0
  br i1 %85, label %86, label %90

86:                                               ; preds = %83
  %87 = load ptr, ptr %7, align 8, !tbaa !9
  %88 = call ptr (i64, ptr, ...) @zend_strpprintf(i64 noundef 0, ptr noundef @.str.20, ptr noundef %87)
  %89 = load ptr, ptr %11, align 8, !tbaa !90
  store ptr %88, ptr %89, align 8, !tbaa !96
  br label %90

90:                                               ; preds = %86, %83
  store ptr null, ptr %6, align 8
  store i32 1, ptr %15, align 4
  br label %93

91:                                               ; preds = %71
  %92 = load ptr, ptr %13, align 8, !tbaa !9
  store ptr %92, ptr %6, align 8
  store i32 1, ptr %15, align 4
  br label %93

93:                                               ; preds = %91, %90, %45, %44
  call void @llvm.lifetime.end.p0(i64 8, ptr %14) #12
  call void @llvm.lifetime.end.p0(i64 8, ptr %13) #12
  call void @llvm.lifetime.end.p0(i64 8, ptr %12) #12
  %94 = load ptr, ptr %6, align 8
  ret ptr %94
}