; Function Attrs: inlinehint nounwind uwtable
define internal fastcc noalias ptr @parse_ip_address_ex(ptr noundef %0, i64 noundef %1, ptr noundef nonnull writeonly captures(none) %2, i32 noundef range(i32 0, 2) %3, ptr noundef writeonly captures(none) %4) unnamed_addr #13 {
  %6 = load i8, ptr %0, align 1, !tbaa !77
  %7 = icmp eq i8 %6, 91
  %8 = icmp ugt i64 %1, 1
  %or.cond = and i1 %8, %7
  br i1 %or.cond, label %9, label %28

9:                                                ; preds = %5
  %10 = getelementptr inbounds nuw i8, ptr %0, i64 1
  %11 = add i64 %1, -2
  %12 = tail call ptr @memchr(ptr noundef nonnull %10, i32 noundef 93, i64 noundef %11) #17
  %.not33 = icmp eq ptr %12, null
  br i1 %.not33, label %16, label %13

13:                                               ; preds = %9
  %14 = getelementptr inbounds nuw i8, ptr %12, i64 1
  %15 = load i8, ptr %14, align 1, !tbaa !77
  %.not34 = icmp eq i8 %15, 58
  br i1 %.not34, label %19, label %16

16:                                               ; preds = %13, %9
  %.not35 = icmp eq i32 %3, 0
  br i1 %.not35, label %42, label %17

17:                                               ; preds = %16
  %18 = tail call ptr (i64, ptr, ...) @zend_strpprintf(i64 noundef 0, ptr noundef nonnull @.str.19, ptr noundef nonnull %0) #15
  store ptr %18, ptr %4, align 8, !tbaa !84
  br label %42

19:                                               ; preds = %13
  %20 = getelementptr inbounds nuw i8, ptr %12, i64 2
  %21 = tail call i64 @strtol(ptr noundef nonnull captures(none) %20, ptr noundef null, i32 noundef 10) #15
  %22 = trunc i64 %21 to i32
  store i32 %22, ptr %2, align 4, !tbaa !26
  %23 = ptrtoint ptr %12 to i64
  %24 = ptrtoint ptr %0 to i64
  %25 = xor i64 %24, -1
  %26 = add i64 %23, %25
  %27 = tail call noalias ptr @_estrndup(ptr noundef nonnull %10, i64 noundef %26) #15
  br label %42

28:                                               ; preds = %5
  %.not = icmp eq i64 %1, 0
  br i1 %.not, label %.thread, label %29

29:                                               ; preds = %28
  %30 = add i64 %1, -1
  %31 = tail call ptr @memchr(ptr noundef nonnull %0, i32 noundef 58, i64 noundef %30) #17
  %.not31 = icmp eq ptr %31, null
  br i1 %.not31, label %.thread, label %32

32:                                               ; preds = %29
  %33 = getelementptr inbounds nuw i8, ptr %31, i64 1
  %34 = tail call i64 @strtol(ptr noundef nonnull captures(none) %33, ptr noundef null, i32 noundef 10) #15
  %35 = trunc i64 %34 to i32
  store i32 %35, ptr %2, align 4, !tbaa !26
  %36 = ptrtoint ptr %31 to i64
  %37 = ptrtoint ptr %0 to i64
  %38 = sub i64 %36, %37
  %39 = tail call noalias ptr @_estrndup(ptr noundef nonnull %0, i64 noundef %38) #15
  br label %42

.thread:                                          ; preds = %28, %29
  %.not32 = icmp eq i32 %3, 0
  br i1 %.not32, label %42, label %40

40:                                               ; preds = %.thread
  %41 = tail call ptr (i64, ptr, ...) @zend_strpprintf(i64 noundef 0, ptr noundef nonnull @.str.20, ptr noundef nonnull %0) #15
  store ptr %41, ptr %4, align 8, !tbaa !84
  br label %42

42:                                               ; preds = %.thread, %40, %16, %17, %32, %19
  %.0 = phi ptr [ %27, %19 ], [ %39, %32 ], [ null, %17 ], [ null, %16 ], [ null, %40 ], [ null, %.thread ]
  ret ptr %.0
}